; ModuleID = '24/411.c'
source_filename = "24/411.c"
target datalayout = "e-m:e-p270:32:32-p271:32:32-p272:64:64-i64:64-f80:128-n8:16:32:64-S128"
target triple = "x86_64-pc-linux-gnu"

@.str = private unnamed_addr constant [3 x i8] c"%s\00", align 1
@.str.1 = private unnamed_addr constant [3 x i8] c"%c\00", align 1
@.str.2 = private unnamed_addr constant [6 x i8] c"%s\0A%s\00", align 1

; Function Attrs: noinline nounwind uwtable
define dso_local i32 @main() #0 {
  %1 = alloca i32, align 4
  %2 = alloca [50 x [50 x i8]], align 16
  %3 = alloca i8, align 1
  %4 = alloca i32, align 4
  %5 = alloca i32, align 4
  %6 = alloca i32, align 4
  store i32 0, i32* %1, align 4
  %7 = bitcast [50 x [50 x i8]]* %2 to i8*
  call void @llvm.memset.p0i8.i64(i8* align 16 %7, i8 0, i64 2500, i1 false)
  %8 = bitcast i8* %7 to <{ <{ i8, [49 x i8] }>, [49 x <{ i8, [49 x i8] }>] }>*
  %9 = getelementptr inbounds <{ <{ i8, [49 x i8] }>, [49 x <{ i8, [49 x i8] }>] }>, <{ <{ i8, [49 x i8] }>, [49 x <{ i8, [49 x i8] }>] }>* %8, i32 0, i32 0
  %10 = getelementptr inbounds <{ i8, [49 x i8] }>, <{ i8, [49 x i8] }>* %9, i32 0, i32 0
  store i8 48, i8* %10, align 16
  store i32 0, i32* %5, align 4
  store i32 0, i32* %6, align 4
  store i32 0, i32* %4, align 4
  br label %11

11:                                               ; preds = %26, %0
  %12 = load i32, i32* %4, align 4
  %13 = icmp slt i32 %12, 50
  br i1 %13, label %14, label %29

14:                                               ; preds = %11
  %15 = load i32, i32* %4, align 4
  %16 = sext i32 %15 to i64
  %17 = getelementptr inbounds [50 x [50 x i8]], [50 x [50 x i8]]* %2, i64 0, i64 %16
  %18 = getelementptr inbounds [50 x i8], [50 x i8]* %17, i64 0, i64 0
  %19 = call i32 (i8*, ...) @__isoc99_scanf(i8* getelementptr inbounds ([3 x i8], [3 x i8]* @.str, i64 0, i64 0), i8* %18)
  %20 = call i32 (i8*, ...) @__isoc99_scanf(i8* getelementptr inbounds ([3 x i8], [3 x i8]* @.str.1, i64 0, i64 0), i8* %3)
  %21 = load i8, i8* %3, align 1
  %22 = sext i8 %21 to i32
  %23 = icmp eq i32 %22, 10
  br i1 %23, label %24, label %25

24:                                               ; preds = %14
  br label %29

25:                                               ; preds = %14
  br label %26

26:                                               ; preds = %25
  %27 = load i32, i32* %4, align 4
  %28 = add nsw i32 %27, 1
  store i32 %28, i32* %4, align 4
  br label %11

29:                                               ; preds = %24, %11
  store i32 0, i32* %4, align 4
  br label %30

30:                                               ; preds = %70, %29
  %31 = load i32, i32* %4, align 4
  %32 = icmp slt i32 %31, 50
  br i1 %32, label %33, label %73

33:                                               ; preds = %30
  %34 = load i32, i32* %4, align 4
  %35 = sext i32 %34 to i64
  %36 = getelementptr inbounds [50 x [50 x i8]], [50 x [50 x i8]]* %2, i64 0, i64 %35
  %37 = getelementptr inbounds [50 x i8], [50 x i8]* %36, i64 0, i64 0
  %38 = call i64 @strlen(i8* %37) #4
  %39 = load i32, i32* %5, align 4
  %40 = sext i32 %39 to i64
  %41 = getelementptr inbounds [50 x [50 x i8]], [50 x [50 x i8]]* %2, i64 0, i64 %40
  %42 = getelementptr inbounds [50 x i8], [50 x i8]* %41, i64 0, i64 0
  %43 = call i64 @strlen(i8* %42) #4
  %44 = icmp ugt i64 %38, %43
  br i1 %44, label %45, label %47

45:                                               ; preds = %33
  %46 = load i32, i32* %4, align 4
  store i32 %46, i32* %5, align 4
  br label %69

47:                                               ; preds = %33
  %48 = load i32, i32* %4, align 4
  %49 = sext i32 %48 to i64
  %50 = getelementptr inbounds [50 x [50 x i8]], [50 x [50 x i8]]* %2, i64 0, i64 %49
  %51 = getelementptr inbounds [50 x i8], [50 x i8]* %50, i64 0, i64 0
  %52 = call i64 @strlen(i8* %51) #4
  %53 = load i32, i32* %6, align 4
  %54 = sext i32 %53 to i64
  %55 = getelementptr inbounds [50 x [50 x i8]], [50 x [50 x i8]]* %2, i64 0, i64 %54
  %56 = getelementptr inbounds [50 x i8], [50 x i8]* %55, i64 0, i64 0
  %57 = call i64 @strlen(i8* %56) #4
  %58 = icmp ult i64 %52, %57
  br i1 %58, label %59, label %68

59:                                               ; preds = %47
  %60 = load i32, i32* %4, align 4
  %61 = sext i32 %60 to i64
  %62 = getelementptr inbounds [50 x [50 x i8]], [50 x [50 x i8]]* %2, i64 0, i64 %61
  %63 = getelementptr inbounds [50 x i8], [50 x i8]* %62, i64 0, i64 0
  %64 = call i64 @strlen(i8* %63) #4
  %65 = icmp ne i64 %64, 0
  br i1 %65, label %66, label %68

66:                                               ; preds = %59
  %67 = load i32, i32* %4, align 4
  store i32 %67, i32* %6, align 4
  br label %68

68:                                               ; preds = %66, %59, %47
  br label %69

69:                                               ; preds = %68, %45
  br label %70

70:                                               ; preds = %69
  %71 = load i32, i32* %4, align 4
  %72 = add nsw i32 %71, 1
  store i32 %72, i32* %4, align 4
  br label %30

73:                                               ; preds = %30
  %74 = load i32, i32* %5, align 4
  %75 = sext i32 %74 to i64
  %76 = getelementptr inbounds [50 x [50 x i8]], [50 x [50 x i8]]* %2, i64 0, i64 %75
  %77 = getelementptr inbounds [50 x i8], [50 x i8]* %76, i64 0, i64 0
  %78 = load i32, i32* %6, align 4
  %79 = sext i32 %78 to i64
  %80 = getelementptr inbounds [50 x [50 x i8]], [50 x [50 x i8]]* %2, i64 0, i64 %79
  %81 = getelementptr inbounds [50 x i8], [50 x i8]* %80, i64 0, i64 0
  %82 = call i32 (i8*, ...) @printf(i8* getelementptr inbounds ([6 x i8], [6 x i8]* @.str.2, i64 0, i64 0), i8* %77, i8* %81)
  ret i32 0
}

; Function Attrs: argmemonly nounwind willreturn
declare void @llvm.memset.p0i8.i64(i8* nocapture writeonly, i8, i64, i1 immarg) #1

declare dso_local i32 @__isoc99_scanf(i8*, ...) #2

; Function Attrs: nounwind readonly
declare dso_local i64 @strlen(i8*) #3

declare dso_local i32 @printf(i8*, ...) #2


!llvm.module.flags = !{!0}
!llvm.ident = !{!1}

!0 = !{i32 1, !"wchar_size", i32 4}
!1 = !{!"clang version 10.0.0-4ubuntu1 "}
